target datalayout = "e-m:e-p270:32:32-p271:32:32-p272:64:64-i64:64-i128:128-f80:128-n8:16:32:64-S128"
target triple = "x86_64-pc-linux-gnu"

%struct.SurfaceDataRasInfo = type { %struct.SurfaceDataBounds, ptr, i32, i32, i32, i32, ptr, ptr, ptr, ptr, ptr, ptr, i32, %union.anon.0 }
%struct.SurfaceDataBounds = type { i32, i32, i32, i32 }
%union.anon.0 = type { ptr, [56 x i8] }

; Function Attrs: nounwind uwtable
define hidden void @ThreeByteBgrToByteIndexedScaleConvert(ptr noundef %0, ptr noundef %1, i32 noundef %2, i32 noundef %3, i32 noundef %4, i32 noundef %5, i32 noundef %6, i32 noundef %7, i32 noundef %8, ptr noundef %9, ptr noundef %10, ptr noundef %11, ptr noundef %12) #0 {
  %14 = alloca ptr, align 8
  %15 = alloca ptr, align 8
  %16 = alloca i32, align 4
  %17 = alloca i32, align 4
  %18 = alloca i32, align 4
  %19 = alloca i32, align 4
  %20 = alloca i32, align 4
  %21 = alloca i32, align 4
  %22 = alloca i32, align 4
  %23 = alloca ptr, align 8
  %24 = alloca ptr, align 8
  %25 = alloca ptr, align 8
  %26 = alloca ptr, align 8
  %27 = alloca i32, align 4
  %28 = alloca i32, align 4
  %29 = alloca i32, align 4
  %30 = alloca ptr, align 8
  %31 = alloca ptr, align 8
  %32 = alloca ptr, align 8
  %33 = alloca ptr, align 8
  %34 = alloca ptr, align 8
  %35 = alloca ptr, align 8
  %36 = alloca i32, align 4
  %37 = alloca i32, align 4
  %38 = alloca i32, align 4
  %39 = alloca i32, align 4
  %40 = alloca i32, align 4
  %41 = alloca i32, align 4
  %42 = alloca i32, align 4
  %43 = alloca i32, align 4
  store ptr %0, ptr %14, align 8
  store ptr %1, ptr %15, align 8
  store i32 %2, ptr %16, align 4
  store i32 %3, ptr %17, align 4
  store i32 %4, ptr %18, align 4
  store i32 %5, ptr %19, align 4
  store i32 %6, ptr %20, align 4
  store i32 %7, ptr %21, align 4
  store i32 %8, ptr %22, align 4
  store ptr %9, ptr %23, align 8
  store ptr %10, ptr %24, align 8
  store ptr %11, ptr %25, align 8
  store ptr %12, ptr %26, align 8
  br label %44

44:                                               ; preds = %13
  %45 = load ptr, ptr %15, align 8
  store ptr %45, ptr %35, align 8
  %46 = load ptr, ptr %23, align 8
  %47 = getelementptr inbounds %struct.SurfaceDataRasInfo, ptr %46, i32 0, i32 4
  %48 = load i32, ptr %47, align 8
  store i32 %48, ptr %36, align 4
  %49 = load ptr, ptr %24, align 8
  %50 = getelementptr inbounds %struct.SurfaceDataRasInfo, ptr %49, i32 0, i32 4
  %51 = load i32, ptr %50, align 8
  store i32 %51, ptr %37, align 4
  br label %52

52:                                               ; preds = %44
  br label %53

53:                                               ; preds = %52
  %54 = load ptr, ptr %24, align 8
  %55 = getelementptr inbounds %struct.SurfaceDataRasInfo, ptr %54, i32 0, i32 0
  %56 = getelementptr inbounds %struct.SurfaceDataBounds, ptr %55, i32 0, i32 1
  %57 = load i32, ptr %56, align 4
  %58 = and i32 %57, 7
  %59 = shl i32 %58, 3
  store i32 %59, ptr %28, align 4
  br label %60

60:                                               ; preds = %53
  %61 = load ptr, ptr %24, align 8
  %62 = getelementptr inbounds %struct.SurfaceDataRasInfo, ptr %61, i32 0, i32 7
  %63 = load ptr, ptr %62, align 8
  store ptr %63, ptr %33, align 8
  %64 = load ptr, ptr %24, align 8
  %65 = getelementptr inbounds %struct.SurfaceDataRasInfo, ptr %64, i32 0, i32 12
  %66 = load i32, ptr %65, align 8
  store i32 %66, ptr %29, align 4
  br label %67

67:                                               ; preds = %60
  %68 = load i32, ptr %16, align 4
  %69 = mul i32 %68, 1
  %70 = load i32, ptr %37, align 4
  %71 = sub i32 %70, %69
  store i32 %71, ptr %37, align 4
  br label %72

72:                                               ; preds = %284, %67
  %73 = load i32, ptr %16, align 4
  store i32 %73, ptr %38, align 4
  %74 = load i32, ptr %18, align 4
  store i32 %74, ptr %39, align 4
  %75 = load ptr, ptr %14, align 8
  %76 = ptrtoint ptr %75 to i64
  %77 = load i32, ptr %19, align 4
  %78 = load i32, ptr %22, align 4
  %79 = ashr i32 %77, %78
  %80 = sext i32 %79 to i64
  %81 = load i32, ptr %36, align 4
  %82 = sext i32 %81 to i64
  %83 = mul nsw i64 %80, %82
  %84 = add nsw i64 %76, %83
  %85 = inttoptr i64 %84 to ptr
  store ptr %85, ptr %34, align 8
  br label %86

86:                                               ; preds = %72
  %87 = load ptr, ptr %24, align 8
  %88 = getelementptr inbounds %struct.SurfaceDataRasInfo, ptr %87, i32 0, i32 8
  %89 = load ptr, ptr %88, align 8
  %90 = load i32, ptr %28, align 4
  %91 = sext i32 %90 to i64
  %92 = getelementptr inbounds i8, ptr %89, i64 %91
  store ptr %92, ptr %30, align 8
  %93 = load ptr, ptr %24, align 8
  %94 = getelementptr inbounds %struct.SurfaceDataRasInfo, ptr %93, i32 0, i32 9
  %95 = load ptr, ptr %94, align 8
  %96 = load i32, ptr %28, align 4
  %97 = sext i32 %96 to i64
  %98 = getelementptr inbounds i8, ptr %95, i64 %97
  store ptr %98, ptr %31, align 8
  %99 = load ptr, ptr %24, align 8
  %100 = getelementptr inbounds %struct.SurfaceDataRasInfo, ptr %99, i32 0, i32 10
  %101 = load ptr, ptr %100, align 8
  %102 = load i32, ptr %28, align 4
  %103 = sext i32 %102 to i64
  %104 = getelementptr inbounds i8, ptr %101, i64 %103
  store ptr %104, ptr %32, align 8
  %105 = load ptr, ptr %24, align 8
  %106 = getelementptr inbounds %struct.SurfaceDataRasInfo, ptr %105, i32 0, i32 0
  %107 = getelementptr inbounds %struct.SurfaceDataBounds, ptr %106, i32 0, i32 0
  %108 = load i32, ptr %107, align 8
  %109 = and i32 %108, 7
  store i32 %109, ptr %27, align 4
  br label %110

110:                                              ; preds = %86
  br label %111

111:                                              ; preds = %267, %110
  %112 = load i32, ptr %39, align 4
  %113 = load i32, ptr %22, align 4
  %114 = ashr i32 %112, %113
  store i32 %114, ptr %40, align 4
  br label %115

115:                                              ; preds = %111
  br label %116

116:                                              ; preds = %115
  %117 = load ptr, ptr %34, align 8
  %118 = load i32, ptr %40, align 4
  %119 = mul nsw i32 3, %118
  %120 = add nsw i32 %119, 0
  %121 = sext i32 %120 to i64
  %122 = getelementptr inbounds i8, ptr %117, i64 %121
  %123 = load i8, ptr %122, align 1
  %124 = zext i8 %123 to i32
  store i32 %124, ptr %43, align 4
  %125 = load ptr, ptr %34, align 8
  %126 = load i32, ptr %40, align 4
  %127 = mul nsw i32 3, %126
  %128 = add nsw i32 %127, 1
  %129 = sext i32 %128 to i64
  %130 = getelementptr inbounds i8, ptr %125, i64 %129
  %131 = load i8, ptr %130, align 1
  %132 = zext i8 %131 to i32
  store i32 %132, ptr %42, align 4
  %133 = load ptr, ptr %34, align 8
  %134 = load i32, ptr %40, align 4
  %135 = mul nsw i32 3, %134
  %136 = add nsw i32 %135, 2
  %137 = sext i32 %136 to i64
  %138 = getelementptr inbounds i8, ptr %133, i64 %137
  %139 = load i8, ptr %138, align 1
  %140 = zext i8 %139 to i32
  store i32 %140, ptr %41, align 4
  br label %141

141:                                              ; preds = %116
  br label %142

142:                                              ; preds = %141
  %143 = load i32, ptr %41, align 4
  %144 = icmp eq i32 %143, 0
  br i1 %144, label %148, label %145

145:                                              ; preds = %142
  %146 = load i32, ptr %41, align 4
  %147 = icmp eq i32 %146, 255
  br i1 %147, label %148, label %163

148:                                              ; preds = %145, %142
  %149 = load i32, ptr %42, align 4
  %150 = icmp eq i32 %149, 0
  br i1 %150, label %154, label %151

151:                                              ; preds = %148
  %152 = load i32, ptr %42, align 4
  %153 = icmp eq i32 %152, 255
  br i1 %153, label %154, label %163

154:                                              ; preds = %151, %148
  %155 = load i32, ptr %43, align 4
  %156 = icmp eq i32 %155, 0
  br i1 %156, label %160, label %157

157:                                              ; preds = %154
  %158 = load i32, ptr %43, align 4
  %159 = icmp eq i32 %158, 255
  br i1 %159, label %160, label %163

160:                                              ; preds = %157, %154
  %161 = load i32, ptr %29, align 4
  %162 = icmp ne i32 %161, 0
  br i1 %162, label %188, label %163

163:                                              ; preds = %160, %157, %151, %145
  %164 = load ptr, ptr %30, align 8
  %165 = load i32, ptr %27, align 4
  %166 = sext i32 %165 to i64
  %167 = getelementptr inbounds i8, ptr %164, i64 %166
  %168 = load i8, ptr %167, align 1
  %169 = sext i8 %168 to i32
  %170 = load i32, ptr %41, align 4
  %171 = add nsw i32 %170, %169
  store i32 %171, ptr %41, align 4
  %172 = load ptr, ptr %31, align 8
  %173 = load i32, ptr %27, align 4
  %174 = sext i32 %173 to i64
  %175 = getelementptr inbounds i8, ptr %172, i64 %174
  %176 = load i8, ptr %175, align 1
  %177 = sext i8 %176 to i32
  %178 = load i32, ptr %42, align 4
  %179 = add nsw i32 %178, %177
  store i32 %179, ptr %42, align 4
  %180 = load ptr, ptr %32, align 8
  %181 = load i32, ptr %27, align 4
  %182 = sext i32 %181 to i64
  %183 = getelementptr inbounds i8, ptr %180, i64 %182
  %184 = load i8, ptr %183, align 1
  %185 = sext i8 %184 to i32
  %186 = load i32, ptr %43, align 4
  %187 = add nsw i32 %186, %185
  store i32 %187, ptr %43, align 4
  br label %188

188:                                              ; preds = %163, %160
  br label %189

189:                                              ; preds = %188
  %190 = load i32, ptr %41, align 4
  %191 = load i32, ptr %42, align 4
  %192 = or i32 %190, %191
  %193 = load i32, ptr %43, align 4
  %194 = or i32 %192, %193
  %195 = ashr i32 %194, 8
  %196 = icmp ne i32 %195, 0
  br i1 %196, label %197, label %231

197:                                              ; preds = %189
  br label %198

198:                                              ; preds = %197
  %199 = load i32, ptr %41, align 4
  %200 = ashr i32 %199, 8
  %201 = icmp ne i32 %200, 0
  br i1 %201, label %202, label %207

202:                                              ; preds = %198
  %203 = load i32, ptr %41, align 4
  %204 = ashr i32 %203, 31
  %205 = xor i32 %204, -1
  %206 = and i32 %205, 255
  store i32 %206, ptr %41, align 4
  br label %207

207:                                              ; preds = %202, %198
  br label %208

208:                                              ; preds = %207
  br label %209

209:                                              ; preds = %208
  %210 = load i32, ptr %42, align 4
  %211 = ashr i32 %210, 8
  %212 = icmp ne i32 %211, 0
  br i1 %212, label %213, label %218

213:                                              ; preds = %209
  %214 = load i32, ptr %42, align 4
  %215 = ashr i32 %214, 31
  %216 = xor i32 %215, -1
  %217 = and i32 %216, 255
  store i32 %217, ptr %42, align 4
  br label %218

218:                                              ; preds = %213, %209
  br label %219

219:                                              ; preds = %218
  br label %220

220:                                              ; preds = %219
  %221 = load i32, ptr %43, align 4
  %222 = ashr i32 %221, 8
  %223 = icmp ne i32 %222, 0
  br i1 %223, label %224, label %229

224:                                              ; preds = %220
  %225 = load i32, ptr %43, align 4
  %226 = ashr i32 %225, 31
  %227 = xor i32 %226, -1
  %228 = and i32 %227, 255
  store i32 %228, ptr %43, align 4
  br label %229

229:                                              ; preds = %224, %220
  br label %230

230:                                              ; preds = %229
  br label %231

231:                                              ; preds = %230, %189
  br label %232

232:                                              ; preds = %231
  %233 = load ptr, ptr %33, align 8
  %234 = load i32, ptr %41, align 4
  %235 = trunc i32 %234 to i8
  %236 = zext i8 %235 to i32
  %237 = ashr i32 %236, 3
  %238 = shl i32 %237, 10
  %239 = load i32, ptr %42, align 4
  %240 = trunc i32 %239 to i8
  %241 = zext i8 %240 to i32
  %242 = ashr i32 %241, 3
  %243 = shl i32 %242, 5
  %244 = add nsw i32 %238, %243
  %245 = load i32, ptr %43, align 4
  %246 = trunc i32 %245 to i8
  %247 = zext i8 %246 to i32
  %248 = ashr i32 %247, 3
  %249 = add nsw i32 %244, %248
  %250 = sext i32 %249 to i64
  %251 = getelementptr inbounds i8, ptr %233, i64 %250
  %252 = load i8, ptr %251, align 1
  %253 = load ptr, ptr %35, align 8
  %254 = getelementptr inbounds i8, ptr %253, i64 0
  store i8 %252, ptr %254, align 1
  br label %255

255:                                              ; preds = %232
  br label %256

256:                                              ; preds = %255
  %257 = load ptr, ptr %35, align 8
  %258 = ptrtoint ptr %257 to i64
  %259 = add nsw i64 %258, 1
  %260 = inttoptr i64 %259 to ptr
  store ptr %260, ptr %35, align 8
  %261 = load i32, ptr %27, align 4
  %262 = add nsw i32 %261, 1
  %263 = and i32 %262, 7
  store i32 %263, ptr %27, align 4
  %264 = load i32, ptr %20, align 4
  %265 = load i32, ptr %39, align 4
  %266 = add nsw i32 %265, %264
  store i32 %266, ptr %39, align 4
  br label %267

267:                                              ; preds = %256
  %268 = load i32, ptr %38, align 4
  %269 = add i32 %268, -1
  store i32 %269, ptr %38, align 4
  %270 = icmp ugt i32 %269, 0
  br i1 %270, label %111, label %271, !llvm.loop !20

271:                                              ; preds = %267
  %272 = load ptr, ptr %35, align 8
  %273 = ptrtoint ptr %272 to i64
  %274 = load i32, ptr %37, align 4
  %275 = sext i32 %274 to i64
  %276 = add nsw i64 %273, %275
  %277 = inttoptr i64 %276 to ptr
  store ptr %277, ptr %35, align 8
  %278 = load i32, ptr %28, align 4
  %279 = add nsw i32 %278, 8
  %280 = and i32 %279, 56
  store i32 %280, ptr %28, align 4
  %281 = load i32, ptr %21, align 4
  %282 = load i32, ptr %19, align 4
  %283 = add nsw i32 %282, %281
  store i32 %283, ptr %19, align 4
  br label %284

284:                                              ; preds = %271
  %285 = load i32, ptr %17, align 4
  %286 = add i32 %285, -1
  store i32 %286, ptr %17, align 4
  %287 = icmp ugt i32 %286, 0
  br i1 %287, label %72, label %288, !llvm.loop !21

288:                                              ; preds = %284
  br label %289

289:                                              ; preds = %288
  ret void
}