; Function Attrs: nofree norecurse nosync nounwind memory(readwrite, inaccessiblemem: none) uwtable
define hidden void @ThreeByteBgrToByteIndexedScaleConvert(ptr noundef %0, ptr noundef %1, i32 noundef %2, i32 noundef %3, i32 noundef %4, i32 noundef %5, i32 noundef %6, i32 noundef %7, i32 noundef %8, ptr nocapture noundef readonly %9, ptr nocapture noundef readonly %10, ptr nocapture readnone %11, ptr nocapture readnone %12) #0 {
  %14 = getelementptr inbounds i8, ptr %9, i64 32
  %15 = load i32, ptr %14, align 8
  %16 = getelementptr inbounds i8, ptr %10, i64 32
  %17 = load i32, ptr %16, align 8
  %18 = getelementptr inbounds i8, ptr %10, i64 4
  %19 = load i32, ptr %18, align 4
  %20 = shl i32 %19, 3
  %21 = getelementptr inbounds i8, ptr %10, i64 48
  %22 = load ptr, ptr %21, align 8
  %23 = getelementptr inbounds i8, ptr %10, i64 88
  %24 = load i32, ptr %23, align 8
  %25 = sub i32 %17, %2
  %26 = sext i32 %25 to i64
  %27 = ptrtoint ptr %0 to i64
  %28 = sext i32 %15 to i64
  %29 = getelementptr inbounds i8, ptr %10, i64 56
  %30 = getelementptr inbounds i8, ptr %10, i64 64
  %31 = getelementptr inbounds i8, ptr %10, i64 72
  %32 = icmp ne i32 %24, 0
  br label %33

33:                                               ; preds = %105, %13
  %.088.in = phi i32 [ %20, %13 ], [ %108, %105 ]
  %.085 = phi ptr [ %1, %13 ], [ %107, %105 ]
  %.084 = phi i32 [ %5, %13 ], [ %109, %105 ]
  %.081 = phi i32 [ %3, %13 ], [ %110, %105 ]
  %.088 = and i32 %.088.in, 56
  %34 = ashr i32 %.084, %8
  %35 = sext i32 %34 to i64
  %36 = mul nsw i64 %35, %28
  %37 = add nsw i64 %36, %27
  %38 = inttoptr i64 %37 to ptr
  %39 = load ptr, ptr %29, align 8
  %40 = zext nneg i32 %.088 to i64
  %41 = getelementptr inbounds i8, ptr %39, i64 %40
  %42 = load ptr, ptr %30, align 8
  %43 = getelementptr inbounds i8, ptr %42, i64 %40
  %44 = load ptr, ptr %31, align 8
  %45 = getelementptr inbounds i8, ptr %44, i64 %40
  %46 = load i32, ptr %10, align 8
  br label %47

47:                                               ; preds = %88, %33
  %.087.in = phi i32 [ %46, %33 ], [ %102, %88 ]
  %.186 = phi ptr [ %.085, %33 ], [ %101, %88 ]
  %.083 = phi i32 [ %2, %33 ], [ %104, %88 ]
  %.082 = phi i32 [ %4, %33 ], [ %103, %88 ]
  %.087 = and i32 %.087.in, 7
  %48 = ashr i32 %.082, %8
  %49 = mul nsw i32 %48, 3
  %50 = sext i32 %49 to i64
  %51 = getelementptr inbounds i8, ptr %38, i64 %50
  %52 = load i8, ptr %51, align 1
  %53 = zext i8 %52 to i32
  %54 = getelementptr i8, ptr %51, i64 1
  %55 = load i8, ptr %54, align 1
  %56 = zext i8 %55 to i32
  %57 = getelementptr i8, ptr %51, i64 2
  %58 = load i8, ptr %57, align 1
  %59 = zext i8 %58 to i32
  %60 = add i8 %58, 1
  %or.cond = icmp ult i8 %60, 2
  %61 = add i8 %55, 1
  %or.cond3 = icmp ult i8 %61, 2
  %or.cond98 = select i1 %or.cond, i1 %or.cond3, i1 false
  br i1 %or.cond98, label %62, label %64

62:                                               ; preds = %47
  %63 = add i8 %52, 1
  %or.cond5 = icmp ult i8 %63, 2
  %or.cond7 = select i1 %or.cond5, i1 %32, i1 false
  br i1 %or.cond7, label %78, label %64

64:                                               ; preds = %62, %47
  %65 = zext nneg i32 %.087 to i64
  %66 = getelementptr inbounds i8, ptr %41, i64 %65
  %67 = load i8, ptr %66, align 1
  %68 = sext i8 %67 to i32
  %69 = add nsw i32 %68, %59
  %70 = getelementptr inbounds i8, ptr %43, i64 %65
  %71 = load i8, ptr %70, align 1
  %72 = sext i8 %71 to i32
  %73 = add nsw i32 %72, %56
  %74 = getelementptr inbounds i8, ptr %45, i64 %65
  %75 = load i8, ptr %74, align 1
  %76 = sext i8 %75 to i32
  %77 = add nsw i32 %76, %53
  br label %78

78:                                               ; preds = %64, %62
  %.078 = phi i32 [ %59, %62 ], [ %69, %64 ]
  %.076 = phi i32 [ %56, %62 ], [ %73, %64 ]
  %.0 = phi i32 [ %53, %62 ], [ %77, %64 ]
  %79 = or i32 %.076, %.078
  %80 = or i32 %79, %.0
  %.not = icmp ult i32 %80, 256
  br i1 %.not, label %88, label %81

81:                                               ; preds = %78
  %82 = tail call i32 @llvm.smax.i32(i32 %.078, i32 0)
  %83 = tail call i32 @llvm.umin.i32(i32 %82, i32 255)
  %84 = tail call i32 @llvm.smax.i32(i32 %.076, i32 0)
  %85 = tail call i32 @llvm.umin.i32(i32 %84, i32 255)
  %.not94 = icmp ult i32 %.0, 256
  br i1 %.not94, label %88, label %86

86:                                               ; preds = %81
  %isnotneg.inv95 = icmp slt i32 %.0, 0
  %87 = select i1 %isnotneg.inv95, i32 0, i32 255
  br label %88

88:                                               ; preds = %78, %81, %86
  %.280 = phi i32 [ %83, %86 ], [ %83, %81 ], [ %.078, %78 ]
  %.2 = phi i32 [ %85, %86 ], [ %85, %81 ], [ %.076, %78 ]
  %.1 = phi i32 [ %87, %86 ], [ %.0, %81 ], [ %.0, %78 ]
  %89 = shl nsw i32 %.280, 7
  %90 = and i32 %89, 31744
  %91 = shl nsw i32 %.2, 2
  %92 = and i32 %91, 992
  %93 = or disjoint i32 %92, %90
  %94 = lshr i32 %.1, 3
  %95 = or disjoint i32 %93, %94
  %96 = zext nneg i32 %95 to i64
  %97 = getelementptr inbounds i8, ptr %22, i64 %96
  %98 = load i8, ptr %97, align 1
  store i8 %98, ptr %.186, align 1
  %99 = ptrtoint ptr %.186 to i64
  %100 = add nsw i64 %99, 1
  %101 = inttoptr i64 %100 to ptr
  %102 = add nuw nsw i32 %.087, 1
  %103 = add nsw i32 %.082, %6
  %104 = add i32 %.083, -1
  %.not96 = icmp eq i32 %104, 0
  br i1 %.not96, label %105, label %47, !llvm.loop !21

105:                                              ; preds = %88
  %106 = add nsw i64 %100, %26
  %107 = inttoptr i64 %106 to ptr
  %108 = add nuw nsw i32 %.088, 8
  %109 = add nsw i32 %.084, %7
  %110 = add i32 %.081, -1
  %.not97 = icmp eq i32 %110, 0
  br i1 %.not97, label %111, label %33, !llvm.loop !22

111:                                              ; preds = %105
  ret void
}